; Function Attrs: mustprogress uwtable
define internal noundef ptr @_ZNK12_GLOBAL__N_124EncapsulateInvertedLists7get_idsEm(ptr noundef nonnull align 8 dereferenceable(40) %0, i64 noundef %1) unnamed_addr #2 align 2 {
  %3 = getelementptr inbounds nuw i8, ptr %0, i64 32
  %4 = load ptr, ptr %3, align 8, !tbaa !79
  %5 = load ptr, ptr %4, align 8, !tbaa !5
  %6 = getelementptr inbounds nuw i8, ptr %5, i64 32
  %7 = load ptr, ptr %6, align 8
  %8 = tail call noundef ptr %7(ptr noundef nonnull align 8 dereferenceable(25) %4, i64 noundef %1)
  %9 = load ptr, ptr %0, align 8, !tbaa !5
  %10 = getelementptr inbounds nuw i8, ptr %9, i64 16
  %11 = load ptr, ptr %10, align 8
  %12 = tail call noundef i64 %11(ptr noundef nonnull align 8 dereferenceable(40) %0, i64 noundef %1)
  %13 = shl i64 %12, 3
  %14 = icmp eq i64 %13, 0
  br i1 %14, label %_ZN12_GLOBAL__N_124EncapsulateInvertedLists6memdupEPKvm.exit, label %15

15:                                               ; preds = %2
  %16 = tail call noalias ptr @malloc(i64 noundef %13) #25
  tail call void @llvm.memcpy.p0.p0.i64(ptr align 1 %16, ptr readonly align 1 %8, i64 %13, i1 false)
  br label %_ZN12_GLOBAL__N_124EncapsulateInvertedLists6memdupEPKvm.exit

_ZN12_GLOBAL__N_124EncapsulateInvertedLists6memdupEPKvm.exit: ; preds = %2, %15
  %.0.i = phi ptr [ %16, %15 ], [ null, %2 ]
  ret ptr %.0.i
}